target datalayout = "e-m:e-p270:32:32-p271:32:32-p272:64:64-i64:64-i128:128-f80:128-n8:16:32:64-S128"
target triple = "x86_64-pc-linux-gnu"

%struct.rar5 = type { i32, i32, i32, i32, i64, i64, %struct.generic_header, %struct.main_header, %struct.comp_state, %struct.file_header, %struct.bit_reader, %struct.multivolume, %struct.compressed_block_header, i32, i32 }
%struct.generic_header = type { i8, i32, i32 }
%struct.main_header = type { i8, i32 }
%struct.comp_state = type { i8, i32, i32, i32, i64, ptr, ptr, ptr, i64, i64, i64, i64, i64, i64, i32, %struct.decode_table, %struct.decode_table, %struct.decode_table, %struct.decode_table, %struct.decode_table, %struct.cdeque, i64, i64, [4 x i32], [2 x %struct.data_ready] }
%struct.decode_table = type { i32, [16 x i32], [16 x i32], i32, [1024 x i8], [1024 x i16], [306 x i16] }
%struct.cdeque = type { i16, i16, i16, i16, ptr }
%struct.data_ready = type { i8, ptr, i64, i64 }
%struct.file_header = type { i64, i64, i64, i64, i8, i64, i64, i64, i32, i32, i32, [32 x i8], %struct.blake2sp_state__, i8, i64, i64, i64 }
%struct.blake2sp_state__ = type { [8 x [1 x %struct.blake2s_state__]], [1 x %struct.blake2s_state__], [512 x i8], i64, i64 }
%struct.blake2s_state__ = type { [8 x i32], [2 x i32], [2 x i32], [64 x i8], i64, i64, i8 }
%struct.bit_reader = type { i8, i32 }
%struct.multivolume = type { i32, ptr }
%struct.compressed_block_header = type { i8, i8 }

; Function Attrs: nounwind uwtable
define internal i32 @consume(ptr noundef %0, i64 noundef %1) #0 {
  %3 = alloca ptr, align 8
  %4 = alloca i64, align 8
  %5 = alloca i32, align 4
  store ptr %0, ptr %3, align 8, !tbaa !13
  store i64 %1, ptr %4, align 8, !tbaa !42
  call void @llvm.lifetime.start.p0(i64 4, ptr %5) #11
  %6 = load i64, ptr %4, align 8, !tbaa !42
  %7 = load ptr, ptr %3, align 8, !tbaa !13
  %8 = load i64, ptr %4, align 8, !tbaa !42
  %9 = call i64 @__archive_read_consume(ptr noundef %7, i64 noundef %8)
  %10 = icmp eq i64 %6, %9
  %11 = select i1 %10, i32 0, i32 -30
  store i32 %11, ptr %5, align 4, !tbaa !9
  %12 = load i32, ptr %5, align 4, !tbaa !9
  call void @llvm.lifetime.end.p0(i64 4, ptr %5) #11
  ret i32 %12
}

; Function Attrs: nounwind uwtable
define internal i32 @read_ahead(ptr noundef %0, i64 noundef %1, ptr noundef %2) #0 {
  %4 = alloca i32, align 4
  %5 = alloca ptr, align 8
  %6 = alloca i64, align 8
  %7 = alloca ptr, align 8
  %8 = alloca i64, align 8
  %9 = alloca i32, align 4
  store ptr %0, ptr %5, align 8, !tbaa !13
  store i64 %1, ptr %6, align 8, !tbaa !42
  store ptr %2, ptr %7, align 8, !tbaa !79
  call void @llvm.lifetime.start.p0(i64 8, ptr %8) #11
  store i64 -1, ptr %8, align 8, !tbaa !42
  %10 = load ptr, ptr %7, align 8, !tbaa !79
  %11 = icmp ne ptr %10, null
  br i1 %11, label %13, label %12

12:                                               ; preds = %3
  store i32 0, ptr %4, align 4
  store i32 1, ptr %9, align 4
  br label %23

13:                                               ; preds = %3
  %14 = load ptr, ptr %5, align 8, !tbaa !13
  %15 = load i64, ptr %6, align 8, !tbaa !42
  %16 = call ptr @__archive_read_ahead(ptr noundef %14, i64 noundef %15, ptr noundef %8)
  %17 = load ptr, ptr %7, align 8, !tbaa !79
  store ptr %16, ptr %17, align 8, !tbaa !33
  %18 = load ptr, ptr %7, align 8, !tbaa !79
  %19 = load ptr, ptr %18, align 8, !tbaa !33
  %20 = icmp eq ptr %19, null
  br i1 %20, label %21, label %22

21:                                               ; preds = %13
  store i32 0, ptr %4, align 4
  store i32 1, ptr %9, align 4
  br label %23

22:                                               ; preds = %13
  store i32 1, ptr %4, align 4
  store i32 1, ptr %9, align 4
  br label %23

23:                                               ; preds = %22, %21, %12
  call void @llvm.lifetime.end.p0(i64 8, ptr %8) #11
  %24 = load i32, ptr %4, align 4
  ret i32 %24
}

; Function Attrs: nounwind uwtable
define internal i32 @read_var(ptr noundef %0, ptr noundef %1, ptr noundef %2) #0 {
  %4 = alloca i32, align 4
  %5 = alloca ptr, align 8
  %6 = alloca ptr, align 8
  %7 = alloca ptr, align 8
  %8 = alloca i64, align 8
  %9 = alloca i64, align 8
  %10 = alloca i64, align 8
  %11 = alloca ptr, align 8
  %12 = alloca i8, align 1
  %13 = alloca i32, align 4
  store ptr %0, ptr %5, align 8, !tbaa !13
  store ptr %1, ptr %6, align 8, !tbaa !41
  store ptr %2, ptr %7, align 8, !tbaa !41
  call void @llvm.lifetime.start.p0(i64 8, ptr %8) #11
  store i64 0, ptr %8, align 8, !tbaa !42
  call void @llvm.lifetime.start.p0(i64 8, ptr %9) #11
  call void @llvm.lifetime.start.p0(i64 8, ptr %10) #11
  call void @llvm.lifetime.start.p0(i64 8, ptr %11) #11
  call void @llvm.lifetime.start.p0(i64 1, ptr %12) #11
  %14 = load ptr, ptr %5, align 8, !tbaa !13
  %15 = call i32 @read_ahead(ptr noundef %14, i64 noundef 8, ptr noundef %11)
  %16 = icmp ne i32 %15, 0
  br i1 %16, label %18, label %17

17:                                               ; preds = %3
  store i32 0, ptr %4, align 4
  store i32 1, ptr %13, align 4
  br label %84

18:                                               ; preds = %3
  store i64 0, ptr %9, align 8, !tbaa !42
  store i64 0, ptr %10, align 8, !tbaa !42
  br label %19

19:                                               ; preds = %61, %18
  %20 = load i64, ptr %10, align 8, !tbaa !42
  %21 = icmp ult i64 %20, 8
  br i1 %21, label %22, label %66

22:                                               ; preds = %19
  %23 = load ptr, ptr %11, align 8, !tbaa !33
  %24 = load i64, ptr %10, align 8, !tbaa !42
  %25 = getelementptr inbounds nuw i8, ptr %23, i64 %24
  %26 = load i8, ptr %25, align 1, !tbaa !75
  store i8 %26, ptr %12, align 1, !tbaa !75
  %27 = load i8, ptr %12, align 1, !tbaa !75
  %28 = zext i8 %27 to i64
  %29 = and i64 %28, 127
  %30 = load i64, ptr %9, align 8, !tbaa !42
  %31 = shl i64 %29, %30
  %32 = load i64, ptr %8, align 8, !tbaa !42
  %33 = add i64 %32, %31
  store i64 %33, ptr %8, align 8, !tbaa !42
  %34 = load i8, ptr %12, align 1, !tbaa !75
  %35 = zext i8 %34 to i32
  %36 = and i32 %35, 128
  %37 = icmp eq i32 %36, 0
  br i1 %37, label %38, label %60

38:                                               ; preds = %22
  %39 = load ptr, ptr %6, align 8, !tbaa !41
  %40 = icmp ne ptr %39, null
  br i1 %40, label %41, label %44

41:                                               ; preds = %38
  %42 = load i64, ptr %8, align 8, !tbaa !42
  %43 = load ptr, ptr %6, align 8, !tbaa !41
  store i64 %42, ptr %43, align 8, !tbaa !42
  br label %44

44:                                               ; preds = %41, %38
  %45 = load ptr, ptr %7, align 8, !tbaa !41
  %46 = icmp ne ptr %45, null
  br i1 %46, label %47, label %51

47:                                               ; preds = %44
  %48 = load i64, ptr %10, align 8, !tbaa !42
  %49 = add i64 1, %48
  %50 = load ptr, ptr %7, align 8, !tbaa !41
  store i64 %49, ptr %50, align 8, !tbaa !42
  br label %59

51:                                               ; preds = %44
  %52 = load ptr, ptr %5, align 8, !tbaa !13
  %53 = load i64, ptr %10, align 8, !tbaa !42
  %54 = add i64 1, %53
  %55 = call i32 @consume(ptr noundef %52, i64 noundef %54)
  %56 = icmp ne i32 0, %55
  br i1 %56, label %57, label %58

57:                                               ; preds = %51
  store i32 0, ptr %4, align 4
  store i32 1, ptr %13, align 4
  br label %84

58:                                               ; preds = %51
  br label %59

59:                                               ; preds = %58, %47
  store i32 1, ptr %4, align 4
  store i32 1, ptr %13, align 4
  br label %84

60:                                               ; preds = %22
  br label %61

61:                                               ; preds = %60
  %62 = load i64, ptr %10, align 8, !tbaa !42
  %63 = add i64 %62, 1
  store i64 %63, ptr %10, align 8, !tbaa !42
  %64 = load i64, ptr %9, align 8, !tbaa !42
  %65 = add i64 %64, 7
  store i64 %65, ptr %9, align 8, !tbaa !42
  br label %19, !llvm.loop !99

66:                                               ; preds = %19
  %67 = load ptr, ptr %6, align 8, !tbaa !41
  %68 = icmp ne ptr %67, null
  br i1 %68, label %69, label %72

69:                                               ; preds = %66
  %70 = load i64, ptr %8, align 8, !tbaa !42
  %71 = load ptr, ptr %6, align 8, !tbaa !41
  store i64 %70, ptr %71, align 8, !tbaa !42
  br label %72

72:                                               ; preds = %69, %66
  %73 = load ptr, ptr %7, align 8, !tbaa !41
  %74 = icmp ne ptr %73, null
  br i1 %74, label %75, label %77

75:                                               ; preds = %72
  %76 = load ptr, ptr %7, align 8, !tbaa !41
  store i64 9, ptr %76, align 8, !tbaa !42
  br label %83

77:                                               ; preds = %72
  %78 = load ptr, ptr %5, align 8, !tbaa !13
  %79 = call i32 @consume(ptr noundef %78, i64 noundef 9)
  %80 = icmp ne i32 0, %79
  br i1 %80, label %81, label %82

81:                                               ; preds = %77
  store i32 0, ptr %4, align 4
  store i32 1, ptr %13, align 4
  br label %84

82:                                               ; preds = %77
  br label %83

83:                                               ; preds = %82, %75
  store i32 1, ptr %4, align 4
  store i32 1, ptr %13, align 4
  br label %84

84:                                               ; preds = %83, %81, %59, %57, %17
  call void @llvm.lifetime.end.p0(i64 1, ptr %12) #11
  call void @llvm.lifetime.end.p0(i64 8, ptr %11) #11
  call void @llvm.lifetime.end.p0(i64 8, ptr %10) #11
  call void @llvm.lifetime.end.p0(i64 8, ptr %9) #11
  call void @llvm.lifetime.end.p0(i64 8, ptr %8) #11
  %85 = load i32, ptr %4, align 4
  ret i32 %85
}

; Function Attrs: nounwind uwtable
define internal i32 @process_main_locator_extra_block(ptr noundef %0, ptr noundef %1) #0 {
  %3 = alloca i32, align 4
  %4 = alloca ptr, align 8
  %5 = alloca ptr, align 8
  %6 = alloca i64, align 8
  %7 = alloca i32, align 4
  store ptr %0, ptr %4, align 8, !tbaa !13
  store ptr %1, ptr %5, align 8, !tbaa !11
  call void @llvm.lifetime.start.p0(i64 8, ptr %6) #11
  %8 = load ptr, ptr %4, align 8, !tbaa !13
  %9 = call i32 @read_var(ptr noundef %8, ptr noundef %6, ptr noundef null)
  %10 = icmp ne i32 %9, 0
  br i1 %10, label %12, label %11

11:                                               ; preds = %2
  store i32 1, ptr %3, align 4
  store i32 1, ptr %7, align 4
  br label %37

12:                                               ; preds = %2
  %13 = load i64, ptr %6, align 8, !tbaa !42
  %14 = and i64 %13, 1
  %15 = icmp ne i64 %14, 0
  br i1 %15, label %16, label %24

16:                                               ; preds = %12
  %17 = load ptr, ptr %4, align 8, !tbaa !13
  %18 = load ptr, ptr %5, align 8, !tbaa !11
  %19 = getelementptr inbounds nuw %struct.rar5, ptr %18, i32 0, i32 4
  %20 = call i32 @read_var(ptr noundef %17, ptr noundef %19, ptr noundef null)
  %21 = icmp ne i32 %20, 0
  br i1 %21, label %23, label %22

22:                                               ; preds = %16
  store i32 1, ptr %3, align 4
  store i32 1, ptr %7, align 4
  br label %37

23:                                               ; preds = %16
  br label %24

24:                                               ; preds = %23, %12
  %25 = load i64, ptr %6, align 8, !tbaa !42
  %26 = and i64 %25, 2
  %27 = icmp ne i64 %26, 0
  br i1 %27, label %28, label %36

28:                                               ; preds = %24
  %29 = load ptr, ptr %4, align 8, !tbaa !13
  %30 = load ptr, ptr %5, align 8, !tbaa !11
  %31 = getelementptr inbounds nuw %struct.rar5, ptr %30, i32 0, i32 5
  %32 = call i32 @read_var(ptr noundef %29, ptr noundef %31, ptr noundef null)
  %33 = icmp ne i32 %32, 0
  br i1 %33, label %35, label %34

34:                                               ; preds = %28
  store i32 1, ptr %3, align 4
  store i32 1, ptr %7, align 4
  br label %37

35:                                               ; preds = %28
  br label %36

36:                                               ; preds = %35, %24
  store i32 0, ptr %3, align 4
  store i32 1, ptr %7, align 4
  br label %37

37:                                               ; preds = %36, %34, %22, %11
  call void @llvm.lifetime.end.p0(i64 8, ptr %6) #11
  %38 = load i32, ptr %3, align 4
  ret i32 %38
}