; Function Attrs: nounwind uwtable
define internal fastcc range(i32 0, 2) i32 @process_main_locator_extra_block(ptr noundef %0, ptr noundef writeonly captures(none) %1) unnamed_addr #0 {
  %3 = alloca i64, align 8
  %4 = alloca i64, align 8
  %5 = alloca i64, align 8
  call void @llvm.lifetime.start.p0(i64 8, ptr nonnull %5) #15
  store i64 -1, ptr %5, align 8, !tbaa !29
  %6 = call ptr @__archive_read_ahead(ptr noundef %0, i64 noundef 8, ptr noundef nonnull %5) #15
  %.not35.i = icmp eq ptr %6, null
  call void @llvm.lifetime.end.p0(i64 8, ptr nonnull %5) #15
  br i1 %.not35.i, label %read_var.exit24, label %.preheader.i

.preheader.i:                                     ; preds = %2, %18
  %.02340.i = phi i64 [ %14, %18 ], [ 0, %2 ]
  %.02439.i = phi i64 [ %19, %18 ], [ 0, %2 ]
  %.02538.i = phi i64 [ %12, %18 ], [ 0, %2 ]
  %7 = getelementptr inbounds nuw i8, ptr %6, i64 %.02340.i
  %8 = load i8, ptr %7, align 1, !tbaa !26
  %9 = and i8 %8, 127
  %10 = zext nneg i8 %9 to i64
  %11 = shl i64 %10, %.02439.i
  %12 = add i64 %11, %.02538.i
  %13 = icmp sgt i8 %8, -1
  %14 = add nuw nsw i64 %.02340.i, 1
  br i1 %13, label %15, label %18

15:                                               ; preds = %.preheader.i
  %16 = call i64 @__archive_read_consume(ptr noundef %0, i64 noundef %14) #15
  %17 = icmp eq i64 %14, %16
  br i1 %17, label %read_var.exit, label %read_var.exit24

18:                                               ; preds = %.preheader.i
  %19 = add nuw nsw i64 %.02439.i, 7
  %exitcond.not.i = icmp eq i64 %14, 8
  br i1 %exitcond.not.i, label %20, label %.preheader.i, !llvm.loop !77

20:                                               ; preds = %18
  %21 = call i64 @__archive_read_consume(ptr noundef %0, i64 noundef 9) #15
  %22 = icmp eq i64 %21, 9
  br i1 %22, label %read_var.exit, label %read_var.exit24

read_var.exit:                                    ; preds = %20, %15
  %23 = and i64 %12, 1
  %.not5 = icmp eq i64 %23, 0
  br i1 %.not5, label %read_var.exit16, label %24

24:                                               ; preds = %read_var.exit
  %25 = getelementptr inbounds nuw i8, ptr %1, i64 16
  call void @llvm.lifetime.start.p0(i64 8, ptr nonnull %4) #15
  store i64 -1, ptr %4, align 8, !tbaa !29
  %26 = call ptr @__archive_read_ahead(ptr noundef %0, i64 noundef 8, ptr noundef nonnull %4) #15
  %.not35.i9 = icmp eq ptr %26, null
  call void @llvm.lifetime.end.p0(i64 8, ptr nonnull %4) #15
  br i1 %.not35.i9, label %read_var.exit24, label %.preheader.i10

.preheader.i10:                                   ; preds = %24, %38
  %.02340.i11 = phi i64 [ %39, %38 ], [ 0, %24 ]
  %.02439.i12 = phi i64 [ %40, %38 ], [ 0, %24 ]
  %.02538.i13 = phi i64 [ %32, %38 ], [ 0, %24 ]
  %27 = getelementptr inbounds nuw i8, ptr %26, i64 %.02340.i11
  %28 = load i8, ptr %27, align 1, !tbaa !26
  %29 = and i8 %28, 127
  %30 = zext nneg i8 %29 to i64
  %31 = shl i64 %30, %.02439.i12
  %32 = add i64 %31, %.02538.i13
  %33 = icmp sgt i8 %28, -1
  br i1 %33, label %34, label %38

34:                                               ; preds = %.preheader.i10
  store i64 %32, ptr %25, align 8, !tbaa !29
  %35 = add nuw nsw i64 %.02340.i11, 1
  %36 = call i64 @__archive_read_consume(ptr noundef %0, i64 noundef %35) #15
  %37 = icmp eq i64 %35, %36
  br i1 %37, label %read_var.exit16, label %read_var.exit24

38:                                               ; preds = %.preheader.i10
  %39 = add nuw nsw i64 %.02340.i11, 1
  %40 = add nuw nsw i64 %.02439.i12, 7
  %exitcond.not.i14 = icmp eq i64 %39, 8
  br i1 %exitcond.not.i14, label %41, label %.preheader.i10, !llvm.loop !77

41:                                               ; preds = %38
  store i64 %32, ptr %25, align 8, !tbaa !29
  %42 = call i64 @__archive_read_consume(ptr noundef %0, i64 noundef 9) #15
  %43 = icmp eq i64 %42, 9
  br i1 %43, label %read_var.exit16, label %read_var.exit24

read_var.exit16:                                  ; preds = %41, %34, %read_var.exit
  %44 = and i64 %12, 2
  %.not7 = icmp eq i64 %44, 0
  br i1 %.not7, label %read_var.exit24, label %45

45:                                               ; preds = %read_var.exit16
  %46 = getelementptr inbounds nuw i8, ptr %1, i64 24
  call void @llvm.lifetime.start.p0(i64 8, ptr nonnull %3) #15
  store i64 -1, ptr %3, align 8, !tbaa !29
  %47 = call ptr @__archive_read_ahead(ptr noundef %0, i64 noundef 8, ptr noundef nonnull %3) #15
  %.not35.i17 = icmp eq ptr %47, null
  call void @llvm.lifetime.end.p0(i64 8, ptr nonnull %3) #15
  br i1 %.not35.i17, label %read_var.exit24.thread, label %.preheader.i18

.preheader.i18:                                   ; preds = %45, %59
  %.02340.i19 = phi i64 [ %60, %59 ], [ 0, %45 ]
  %.02439.i20 = phi i64 [ %61, %59 ], [ 0, %45 ]
  %.02538.i21 = phi i64 [ %53, %59 ], [ 0, %45 ]
  %48 = getelementptr inbounds nuw i8, ptr %47, i64 %.02340.i19
  %49 = load i8, ptr %48, align 1, !tbaa !26
  %50 = and i8 %49, 127
  %51 = zext nneg i8 %50 to i64
  %52 = shl i64 %51, %.02439.i20
  %53 = add i64 %52, %.02538.i21
  %54 = icmp sgt i8 %49, -1
  br i1 %54, label %55, label %59

55:                                               ; preds = %.preheader.i18
  store i64 %53, ptr %46, align 8, !tbaa !29
  %56 = add nuw nsw i64 %.02340.i19, 1
  %57 = call i64 @__archive_read_consume(ptr noundef %0, i64 noundef %56) #15
  %58 = icmp eq i64 %56, %57
  br i1 %58, label %read_var.exit24, label %read_var.exit24.thread

59:                                               ; preds = %.preheader.i18
  %60 = add nuw nsw i64 %.02340.i19, 1
  %61 = add nuw nsw i64 %.02439.i20, 7
  %exitcond.not.i22 = icmp eq i64 %60, 8
  br i1 %exitcond.not.i22, label %62, label %.preheader.i18, !llvm.loop !77

62:                                               ; preds = %59
  store i64 %53, ptr %46, align 8, !tbaa !29
  %63 = call i64 @__archive_read_consume(ptr noundef %0, i64 noundef 9) #15
  %64 = icmp eq i64 %63, 9
  br i1 %64, label %read_var.exit24, label %read_var.exit24.thread

read_var.exit24.thread:                           ; preds = %45, %55, %62
  br label %read_var.exit24

read_var.exit24:                                  ; preds = %62, %55, %41, %34, %24, %20, %15, %2, %read_var.exit16, %read_var.exit24.thread
  %.0 = phi i32 [ 1, %read_var.exit24.thread ], [ 0, %read_var.exit16 ], [ 1, %2 ], [ 1, %15 ], [ 1, %20 ], [ 1, %24 ], [ 1, %34 ], [ 1, %41 ], [ 0, %55 ], [ 0, %62 ]
  ret i32 %.0
}